target datalayout = "e-m:e-p270:32:32-p271:32:32-p272:64:64-i64:64-i128:128-f80:128-n8:16:32:64-S128"
target triple = "x86_64-pc-linux-gnu"

%struct.port = type { %struct.pointf_s, double, ptr, i8, i8, i8, i8, i8, i8, ptr }
%struct.pointf_s = type { double, double }
%struct.Agrec_s = type { ptr, ptr }
%struct.Agedge_s = type { %struct.Agobj_s, %struct.dtlink_s_, %struct.dtlink_s_, ptr }
%struct.Agobj_s = type { %struct.Agtag_s, ptr }
%struct.Agtag_s = type { i32, i64 }
%struct.dtlink_s_ = type { ptr, %union.anon }
%union.anon = type { ptr }
%struct.path = type { %struct.port, %struct.port, i64, ptr, ptr }
%struct.boxf = type { %struct.pointf_s, %struct.pointf_s }
%struct.Agnodeinfo_t = type { %struct.Agrec_s, ptr, ptr, %struct.pointf_s, double, double, %struct.boxf, double, double, double, double, double, ptr, ptr, ptr, i8, i8, i8, i8, i32, i32, i32, ptr, double, i8, i8, ptr, ptr, i8, i64, i8, i8, i8, ptr, ptr, %struct.elist, %struct.elist, %struct.elist, %struct.elist, %struct.elist, ptr, i32, ptr, i32, i32, double, %struct.elist, %struct.elist, %struct.elist, %struct.elist, ptr, i32, i32, i32, [1 x double] }
%struct.elist = type { ptr, i64 }
%struct.splineInfo = type { ptr, ptr, i8, i8 }

@sinfo = internal global { ptr, ptr, i8, i8, [6 x i8] } { ptr @swap_ends_p, ptr @spline_merge, i8 0, i8 0, [6 x i8] zeroinitializer }, align 8

; Function Attrs: nounwind uwtable
define internal void @resize_vn(ptr noundef %0, double noundef %1, double noundef %2, double noundef %3) #0 {
  %5 = alloca ptr, align 8
  %6 = alloca double, align 8
  %7 = alloca double, align 8
  %8 = alloca double, align 8
  store ptr %0, ptr %5, align 8, !tbaa !68
  store double %1, ptr %6, align 8, !tbaa !85
  store double %2, ptr %7, align 8, !tbaa !85
  store double %3, ptr %8, align 8, !tbaa !85
  %9 = load double, ptr %7, align 8, !tbaa !85
  %10 = load ptr, ptr %5, align 8, !tbaa !68
  %11 = getelementptr inbounds nuw %struct.Agobj_s, ptr %10, i32 0, i32 1
  %12 = load ptr, ptr %11, align 8, !tbaa !22
  %13 = getelementptr inbounds nuw %struct.Agnodeinfo_t, ptr %12, i32 0, i32 3
  %14 = getelementptr inbounds nuw %struct.pointf_s, ptr %13, i32 0, i32 0
  store double %9, ptr %14, align 8, !tbaa !69
  %15 = load double, ptr %7, align 8, !tbaa !85
  %16 = load double, ptr %6, align 8, !tbaa !85
  %17 = fsub double %15, %16
  %18 = load ptr, ptr %5, align 8, !tbaa !68
  %19 = getelementptr inbounds nuw %struct.Agobj_s, ptr %18, i32 0, i32 1
  %20 = load ptr, ptr %19, align 8, !tbaa !22
  %21 = getelementptr inbounds nuw %struct.Agnodeinfo_t, ptr %20, i32 0, i32 8
  store double %17, ptr %21, align 8, !tbaa !75
  %22 = load double, ptr %8, align 8, !tbaa !85
  %23 = load double, ptr %7, align 8, !tbaa !85
  %24 = fsub double %22, %23
  %25 = load ptr, ptr %5, align 8, !tbaa !68
  %26 = getelementptr inbounds nuw %struct.Agobj_s, ptr %25, i32 0, i32 1
  %27 = load ptr, ptr %26, align 8, !tbaa !22
  %28 = getelementptr inbounds nuw %struct.Agnodeinfo_t, ptr %27, i32 0, i32 9
  store double %24, ptr %28, align 8, !tbaa !76
  ret void
}

; Function Attrs: nounwind uwtable
define internal void @recover_slack(ptr noundef %0, ptr noundef %1) #0 {
  %3 = alloca ptr, align 8
  %4 = alloca ptr, align 8
  %5 = alloca ptr, align 8
  %6 = alloca i64, align 8
  store ptr %0, ptr %3, align 8, !tbaa !78
  store ptr %1, ptr %4, align 8, !tbaa !161
  call void @llvm.lifetime.start.p0(i64 8, ptr %5) #13
  call void @llvm.lifetime.start.p0(i64 8, ptr %6) #13
  store i64 0, ptr %6, align 8, !tbaa !123
  %7 = load ptr, ptr %3, align 8, !tbaa !78
  %8 = getelementptr inbounds nuw %struct.Agobj_s, ptr %7, i32 0, i32 0
  %9 = load i32, ptr %8, align 8
  %10 = and i32 %9, 3
  %11 = icmp eq i32 %10, 2
  br i1 %11, label %12, label %14

12:                                               ; preds = %2
  %13 = load ptr, ptr %3, align 8, !tbaa !78
  br label %17

14:                                               ; preds = %2
  %15 = load ptr, ptr %3, align 8, !tbaa !78
  %16 = getelementptr inbounds %struct.Agedge_s, ptr %15, i64 -1
  br label %17

17:                                               ; preds = %14, %12
  %18 = phi ptr [ %13, %12 ], [ %16, %14 ]
  %19 = getelementptr inbounds nuw %struct.Agedge_s, ptr %18, i32 0, i32 3
  %20 = load ptr, ptr %19, align 8, !tbaa !127
  store ptr %20, ptr %5, align 8, !tbaa !68
  br label %21

21:                                               ; preds = %196, %17
  %22 = load ptr, ptr %5, align 8, !tbaa !68
  %23 = getelementptr inbounds nuw %struct.Agobj_s, ptr %22, i32 0, i32 1
  %24 = load ptr, ptr %23, align 8, !tbaa !22
  %25 = getelementptr inbounds nuw %struct.Agnodeinfo_t, ptr %24, i32 0, i32 28
  %26 = load i8, ptr %25, align 8, !tbaa !88
  %27 = sext i8 %26 to i32
  %28 = icmp eq i32 %27, 1
  br i1 %28, label %29, label %34

29:                                               ; preds = %21
  %30 = load ptr, ptr getelementptr inbounds nuw (%struct.splineInfo, ptr @sinfo, i32 0, i32 1), align 8, !tbaa !89
  %31 = load ptr, ptr %5, align 8, !tbaa !68
  %32 = call zeroext i1 %30(ptr noundef %31)
  %33 = xor i1 %32, true
  br label %34

34:                                               ; preds = %29, %21
  %35 = phi i1 [ false, %21 ], [ %33, %29 ]
  br i1 %35, label %36, label %200

36:                                               ; preds = %34
  br label %37

37:                                               ; preds = %61, %36
  %38 = load i64, ptr %6, align 8, !tbaa !123
  %39 = load ptr, ptr %4, align 8, !tbaa !161
  %40 = getelementptr inbounds nuw %struct.path, ptr %39, i32 0, i32 2
  %41 = load i64, ptr %40, align 8, !tbaa !180
  %42 = icmp ult i64 %38, %41
  br i1 %42, label %43, label %59

43:                                               ; preds = %37
  %44 = load ptr, ptr %4, align 8, !tbaa !161
  %45 = getelementptr inbounds nuw %struct.path, ptr %44, i32 0, i32 3
  %46 = load ptr, ptr %45, align 8, !tbaa !102
  %47 = load i64, ptr %6, align 8, !tbaa !123
  %48 = getelementptr inbounds nuw %struct.boxf, ptr %46, i64 %47
  %49 = getelementptr inbounds nuw %struct.boxf, ptr %48, i32 0, i32 0
  %50 = getelementptr inbounds nuw %struct.pointf_s, ptr %49, i32 0, i32 1
  %51 = load double, ptr %50, align 8, !tbaa !175
  %52 = load ptr, ptr %5, align 8, !tbaa !68
  %53 = getelementptr inbounds nuw %struct.Agobj_s, ptr %52, i32 0, i32 1
  %54 = load ptr, ptr %53, align 8, !tbaa !22
  %55 = getelementptr inbounds nuw %struct.Agnodeinfo_t, ptr %54, i32 0, i32 3
  %56 = getelementptr inbounds nuw %struct.pointf_s, ptr %55, i32 0, i32 1
  %57 = load double, ptr %56, align 8, !tbaa !134
  %58 = fcmp ogt double %51, %57
  br label %59

59:                                               ; preds = %43, %37
  %60 = phi i1 [ false, %37 ], [ %58, %43 ]
  br i1 %60, label %61, label %64

61:                                               ; preds = %59
  %62 = load i64, ptr %6, align 8, !tbaa !123
  %63 = add i64 %62, 1
  store i64 %63, ptr %6, align 8, !tbaa !123
  br label %37, !llvm.loop !316

64:                                               ; preds = %59
  %65 = load i64, ptr %6, align 8, !tbaa !123
  %66 = load ptr, ptr %4, align 8, !tbaa !161
  %67 = getelementptr inbounds nuw %struct.path, ptr %66, i32 0, i32 2
  %68 = load i64, ptr %67, align 8, !tbaa !180
  %69 = icmp uge i64 %65, %68
  br i1 %69, label %70, label %71

70:                                               ; preds = %64
  br label %200

71:                                               ; preds = %64
  %72 = load ptr, ptr %4, align 8, !tbaa !161
  %73 = getelementptr inbounds nuw %struct.path, ptr %72, i32 0, i32 3
  %74 = load ptr, ptr %73, align 8, !tbaa !102
  %75 = load i64, ptr %6, align 8, !tbaa !123
  %76 = getelementptr inbounds nuw %struct.boxf, ptr %74, i64 %75
  %77 = getelementptr inbounds nuw %struct.boxf, ptr %76, i32 0, i32 1
  %78 = getelementptr inbounds nuw %struct.pointf_s, ptr %77, i32 0, i32 1
  %79 = load double, ptr %78, align 8, !tbaa !174
  %80 = load ptr, ptr %5, align 8, !tbaa !68
  %81 = getelementptr inbounds nuw %struct.Agobj_s, ptr %80, i32 0, i32 1
  %82 = load ptr, ptr %81, align 8, !tbaa !22
  %83 = getelementptr inbounds nuw %struct.Agnodeinfo_t, ptr %82, i32 0, i32 3
  %84 = getelementptr inbounds nuw %struct.pointf_s, ptr %83, i32 0, i32 1
  %85 = load double, ptr %84, align 8, !tbaa !134
  %86 = fcmp olt double %79, %85
  br i1 %86, label %87, label %88

87:                                               ; preds = %71
  br label %164

88:                                               ; preds = %71
  %89 = load ptr, ptr %5, align 8, !tbaa !68
  %90 = getelementptr inbounds nuw %struct.Agobj_s, ptr %89, i32 0, i32 1
  %91 = load ptr, ptr %90, align 8, !tbaa !22
  %92 = getelementptr inbounds nuw %struct.Agnodeinfo_t, ptr %91, i32 0, i32 12
  %93 = load ptr, ptr %92, align 8, !tbaa !105
  %94 = icmp ne ptr %93, null
  br i1 %94, label %95, label %127

95:                                               ; preds = %88
  %96 = load ptr, ptr %5, align 8, !tbaa !68
  %97 = load ptr, ptr %4, align 8, !tbaa !161
  %98 = getelementptr inbounds nuw %struct.path, ptr %97, i32 0, i32 3
  %99 = load ptr, ptr %98, align 8, !tbaa !102
  %100 = load i64, ptr %6, align 8, !tbaa !123
  %101 = getelementptr inbounds nuw %struct.boxf, ptr %99, i64 %100
  %102 = getelementptr inbounds nuw %struct.boxf, ptr %101, i32 0, i32 0
  %103 = getelementptr inbounds nuw %struct.pointf_s, ptr %102, i32 0, i32 0
  %104 = load double, ptr %103, align 8, !tbaa !173
  %105 = load ptr, ptr %4, align 8, !tbaa !161
  %106 = getelementptr inbounds nuw %struct.path, ptr %105, i32 0, i32 3
  %107 = load ptr, ptr %106, align 8, !tbaa !102
  %108 = load i64, ptr %6, align 8, !tbaa !123
  %109 = getelementptr inbounds nuw %struct.boxf, ptr %107, i64 %108
  %110 = getelementptr inbounds nuw %struct.boxf, ptr %109, i32 0, i32 1
  %111 = getelementptr inbounds nuw %struct.pointf_s, ptr %110, i32 0, i32 0
  %112 = load double, ptr %111, align 8, !tbaa !176
  %113 = load ptr, ptr %4, align 8, !tbaa !161
  %114 = getelementptr inbounds nuw %struct.path, ptr %113, i32 0, i32 3
  %115 = load ptr, ptr %114, align 8, !tbaa !102
  %116 = load i64, ptr %6, align 8, !tbaa !123
  %117 = getelementptr inbounds nuw %struct.boxf, ptr %115, i64 %116
  %118 = getelementptr inbounds nuw %struct.boxf, ptr %117, i32 0, i32 1
  %119 = getelementptr inbounds nuw %struct.pointf_s, ptr %118, i32 0, i32 0
  %120 = load double, ptr %119, align 8, !tbaa !176
  %121 = load ptr, ptr %5, align 8, !tbaa !68
  %122 = getelementptr inbounds nuw %struct.Agobj_s, ptr %121, i32 0, i32 1
  %123 = load ptr, ptr %122, align 8, !tbaa !22
  %124 = getelementptr inbounds nuw %struct.Agnodeinfo_t, ptr %123, i32 0, i32 9
  %125 = load double, ptr %124, align 8, !tbaa !76
  %126 = fadd double %120, %125
  call void @resize_vn(ptr noundef %96, double noundef %104, double noundef %112, double noundef %126)
  br label %163

127:                                              ; preds = %88
  %128 = load ptr, ptr %5, align 8, !tbaa !68
  %129 = load ptr, ptr %4, align 8, !tbaa !161
  %130 = getelementptr inbounds nuw %struct.path, ptr %129, i32 0, i32 3
  %131 = load ptr, ptr %130, align 8, !tbaa !102
  %132 = load i64, ptr %6, align 8, !tbaa !123
  %133 = getelementptr inbounds nuw %struct.boxf, ptr %131, i64 %132
  %134 = getelementptr inbounds nuw %struct.boxf, ptr %133, i32 0, i32 0
  %135 = getelementptr inbounds nuw %struct.pointf_s, ptr %134, i32 0, i32 0
  %136 = load double, ptr %135, align 8, !tbaa !173
  %137 = load ptr, ptr %4, align 8, !tbaa !161
  %138 = getelementptr inbounds nuw %struct.path, ptr %137, i32 0, i32 3
  %139 = load ptr, ptr %138, align 8, !tbaa !102
  %140 = load i64, ptr %6, align 8, !tbaa !123
  %141 = getelementptr inbounds nuw %struct.boxf, ptr %139, i64 %140
  %142 = getelementptr inbounds nuw %struct.boxf, ptr %141, i32 0, i32 0
  %143 = getelementptr inbounds nuw %struct.pointf_s, ptr %142, i32 0, i32 0
  %144 = load double, ptr %143, align 8, !tbaa !173
  %145 = load ptr, ptr %4, align 8, !tbaa !161
  %146 = getelementptr inbounds nuw %struct.path, ptr %145, i32 0, i32 3
  %147 = load ptr, ptr %146, align 8, !tbaa !102
  %148 = load i64, ptr %6, align 8, !tbaa !123
  %149 = getelementptr inbounds nuw %struct.boxf, ptr %147, i64 %148
  %150 = getelementptr inbounds nuw %struct.boxf, ptr %149, i32 0, i32 1
  %151 = getelementptr inbounds nuw %struct.pointf_s, ptr %150, i32 0, i32 0
  %152 = load double, ptr %151, align 8, !tbaa !176
  %153 = fadd double %144, %152
  %154 = fdiv double %153, 2.000000e+00
  %155 = load ptr, ptr %4, align 8, !tbaa !161
  %156 = getelementptr inbounds nuw %struct.path, ptr %155, i32 0, i32 3
  %157 = load ptr, ptr %156, align 8, !tbaa !102
  %158 = load i64, ptr %6, align 8, !tbaa !123
  %159 = getelementptr inbounds nuw %struct.boxf, ptr %157, i64 %158
  %160 = getelementptr inbounds nuw %struct.boxf, ptr %159, i32 0, i32 1
  %161 = getelementptr inbounds nuw %struct.pointf_s, ptr %160, i32 0, i32 0
  %162 = load double, ptr %161, align 8, !tbaa !176
  call void @resize_vn(ptr noundef %128, double noundef %136, double noundef %154, double noundef %162)
  br label %163

163:                                              ; preds = %127, %95
  br label %164

164:                                              ; preds = %163, %87
  %165 = load ptr, ptr %5, align 8, !tbaa !68
  %166 = getelementptr inbounds nuw %struct.Agobj_s, ptr %165, i32 0, i32 1
  %167 = load ptr, ptr %166, align 8, !tbaa !22
  %168 = getelementptr inbounds nuw %struct.Agnodeinfo_t, ptr %167, i32 0, i32 36
  %169 = getelementptr inbounds nuw %struct.elist, ptr %168, i32 0, i32 0
  %170 = load ptr, ptr %169, align 8, !tbaa !91
  %171 = getelementptr inbounds ptr, ptr %170, i64 0
  %172 = load ptr, ptr %171, align 8, !tbaa !78
  %173 = getelementptr inbounds nuw %struct.Agobj_s, ptr %172, i32 0, i32 0
  %174 = load i32, ptr %173, align 8
  %175 = and i32 %174, 3
  %176 = icmp eq i32 %175, 2
  br i1 %176, label %177, label %186

177:                                              ; preds = %164
  %178 = load ptr, ptr %5, align 8, !tbaa !68
  %179 = getelementptr inbounds nuw %struct.Agobj_s, ptr %178, i32 0, i32 1
  %180 = load ptr, ptr %179, align 8, !tbaa !22
  %181 = getelementptr inbounds nuw %struct.Agnodeinfo_t, ptr %180, i32 0, i32 36
  %182 = getelementptr inbounds nuw %struct.elist, ptr %181, i32 0, i32 0
  %183 = load ptr, ptr %182, align 8, !tbaa !91
  %184 = getelementptr inbounds ptr, ptr %183, i64 0
  %185 = load ptr, ptr %184, align 8, !tbaa !78
  br label %196

186:                                              ; preds = %164
  %187 = load ptr, ptr %5, align 8, !tbaa !68
  %188 = getelementptr inbounds nuw %struct.Agobj_s, ptr %187, i32 0, i32 1
  %189 = load ptr, ptr %188, align 8, !tbaa !22
  %190 = getelementptr inbounds nuw %struct.Agnodeinfo_t, ptr %189, i32 0, i32 36
  %191 = getelementptr inbounds nuw %struct.elist, ptr %190, i32 0, i32 0
  %192 = load ptr, ptr %191, align 8, !tbaa !91
  %193 = getelementptr inbounds ptr, ptr %192, i64 0
  %194 = load ptr, ptr %193, align 8, !tbaa !78
  %195 = getelementptr inbounds %struct.Agedge_s, ptr %194, i64 -1
  br label %196

196:                                              ; preds = %186, %177
  %197 = phi ptr [ %185, %177 ], [ %195, %186 ]
  %198 = getelementptr inbounds nuw %struct.Agedge_s, ptr %197, i32 0, i32 3
  %199 = load ptr, ptr %198, align 8, !tbaa !127
  store ptr %199, ptr %5, align 8, !tbaa !68
  br label %21, !llvm.loop !317

200:                                              ; preds = %70, %34
  call void @llvm.lifetime.end.p0(i64 8, ptr %6) #13
  call void @llvm.lifetime.end.p0(i64 8, ptr %5) #13
  ret void
}