; Function Attrs: nounwind uwtable
define internal fastcc void @recover_slack(ptr noundef readonly captures(none) %0, ptr noundef nonnull readonly captures(none) %1) unnamed_addr #1 {
  %3 = load i32, ptr %0, align 8
  %4 = and i32 %3, 3
  %5 = icmp eq i32 %4, 2
  %.idx = select i1 %5, i64 0, i64 -64
  %6 = getelementptr inbounds i8, ptr %0, i64 %.idx
  %.038.in45 = getelementptr inbounds nuw i8, ptr %6, i64 56
  %.03846 = load ptr, ptr %.038.in45, align 8, !tbaa !107
  %7 = getelementptr inbounds nuw i8, ptr %.03846, i64 16
  %8 = load ptr, ptr %7, align 8, !tbaa !16
  %9 = getelementptr inbounds nuw i8, ptr %8, i64 216
  %10 = load i8, ptr %9, align 8, !tbaa !62
  %11 = icmp eq i8 %10, 1
  br i1 %11, label %.lr.ph49, label %.critedge

.lr.ph49:                                         ; preds = %2
  %12 = getelementptr inbounds nuw i8, ptr %1, i64 96
  %13 = getelementptr inbounds nuw i8, ptr %1, i64 104
  br label %14

14:                                               ; preds = %.lr.ph49, %57
  %15 = phi ptr [ %7, %.lr.ph49 ], [ %65, %57 ]
  %.03848 = phi ptr [ %.03846, %.lr.ph49 ], [ %.038, %57 ]
  %.047 = phi i64 [ 0, %.lr.ph49 ], [ %.144, %57 ]
  %16 = load ptr, ptr getelementptr inbounds nuw (i8, ptr @sinfo, i64 8), align 8, !tbaa !102
  %17 = tail call zeroext i1 %16(ptr noundef nonnull %.03848) #22
  br i1 %17, label %.critedge, label %.preheader

.preheader:                                       ; preds = %14
  %18 = load i64, ptr %12, align 8, !tbaa !201
  %19 = icmp ult i64 %.047, %18
  br i1 %19, label %.lr.ph, label %.critedge

.lr.ph:                                           ; preds = %.preheader
  %20 = load ptr, ptr %13, align 8, !tbaa !116
  %21 = load ptr, ptr %15, align 8, !tbaa !16
  %22 = getelementptr inbounds nuw i8, ptr %21, i64 40
  %23 = load double, ptr %22, align 8, !tbaa !81
  br label %24

24:                                               ; preds = %.lr.ph, %28
  %.144 = phi i64 [ %.047, %.lr.ph ], [ %29, %28 ]
  %25 = getelementptr inbounds nuw %struct.boxf, ptr %20, i64 %.144, i32 0, i32 1
  %26 = load double, ptr %25, align 8, !tbaa !197
  %27 = fcmp ogt double %26, %23
  br i1 %27, label %28, label %30

28:                                               ; preds = %24
  %29 = add i64 %.144, 1
  %exitcond.not = icmp eq i64 %29, %18
  br i1 %exitcond.not, label %.critedge, label %24, !llvm.loop !277

30:                                               ; preds = %24
  %31 = getelementptr inbounds nuw %struct.boxf, ptr %20, i64 %.144
  %32 = getelementptr inbounds nuw i8, ptr %31, i64 24
  %33 = load double, ptr %32, align 8, !tbaa !189
  %34 = fcmp olt double %33, %23
  br i1 %34, label %57, label %35

35:                                               ; preds = %30
  %36 = getelementptr inbounds nuw i8, ptr %31, i64 16
  %37 = getelementptr inbounds nuw i8, ptr %21, i64 136
  %38 = load ptr, ptr %37, align 8, !tbaa !71
  %.not39 = icmp eq ptr %38, null
  %39 = load double, ptr %31, align 8, !tbaa !190
  %40 = load double, ptr %36, align 8, !tbaa !191
  br i1 %.not39, label %49, label %41

41:                                               ; preds = %35
  %42 = getelementptr inbounds nuw i8, ptr %21, i64 112
  %43 = load double, ptr %42, align 8, !tbaa !51
  %44 = fadd double %40, %43
  %45 = getelementptr inbounds nuw i8, ptr %21, i64 32
  store double %40, ptr %45, align 8, !tbaa !78
  %46 = fsub double %40, %39
  %47 = getelementptr inbounds nuw i8, ptr %21, i64 104
  store double %46, ptr %47, align 8, !tbaa !99
  %48 = fsub double %44, %40
  store double %48, ptr %42, align 8, !tbaa !51
  br label %57

49:                                               ; preds = %35
  %50 = fadd double %39, %40
  %51 = fmul double %50, 5.000000e-01
  %52 = getelementptr inbounds nuw i8, ptr %21, i64 32
  store double %51, ptr %52, align 8, !tbaa !78
  %53 = fsub double %51, %39
  %54 = getelementptr inbounds nuw i8, ptr %21, i64 104
  store double %53, ptr %54, align 8, !tbaa !99
  %55 = fsub double %40, %51
  %56 = getelementptr inbounds nuw i8, ptr %21, i64 112
  store double %55, ptr %56, align 8, !tbaa !51
  br label %57

57:                                               ; preds = %41, %49, %30
  %58 = getelementptr inbounds nuw i8, ptr %21, i64 272
  %59 = load ptr, ptr %58, align 8, !tbaa !73
  %60 = load ptr, ptr %59, align 8, !tbaa !74
  %61 = load i32, ptr %60, align 8
  %62 = and i32 %61, 3
  %63 = icmp eq i32 %62, 2
  %.idx41 = select i1 %63, i64 0, i64 -64
  %64 = getelementptr inbounds i8, ptr %60, i64 %.idx41
  %.038.in = getelementptr inbounds nuw i8, ptr %64, i64 56
  %.038 = load ptr, ptr %.038.in, align 8, !tbaa !107
  %65 = getelementptr inbounds nuw i8, ptr %.038, i64 16
  %66 = load ptr, ptr %65, align 8, !tbaa !16
  %67 = getelementptr inbounds nuw i8, ptr %66, i64 216
  %68 = load i8, ptr %67, align 8, !tbaa !62
  %69 = icmp eq i8 %68, 1
  br i1 %69, label %14, label %.critedge, !llvm.loop !278

.critedge:                                        ; preds = %14, %57, %.preheader, %28, %2
  ret void
}